target datalayout = "e-m:e-p270:32:32-p271:32:32-p272:64:64-i64:64-i128:128-f80:128-n8:16:32:64-S128"
target triple = "x86_64-pc-linux-gnu"

%struct.quic_txpim_pkt_st = type { %struct.ossl_ackm_tx_pkt_st, ptr, ptr, i8, i8 }
%struct.ossl_ackm_tx_pkt_st = type { i64, i64, %struct.OSSL_TIME, i64, i8, ptr, ptr, ptr, ptr, %struct.anon, ptr, ptr }
%struct.OSSL_TIME = type { i64 }
%struct.anon = type { ptr, ptr }

@.str.18 = private unnamed_addr constant [9 x i8] c"recovery\00", align 1
@.str.19 = private unnamed_addr constant [12 x i8] c"packet_lost\00", align 1
@.str.20 = private unnamed_addr constant [21 x i8] c"recovery:packet_lost\00", align 1
@.str.21 = private unnamed_addr constant [7 x i8] c"header\00", align 1
@.str.22 = private unnamed_addr constant [12 x i8] c"packet_type\00", align 1
@.str.23 = private unnamed_addr constant [14 x i8] c"packet_number\00", align 1
@.str.51 = private unnamed_addr constant [8 x i8] c"initial\00", align 1
@.str.52 = private unnamed_addr constant [10 x i8] c"handshake\00", align 1
@.str.53 = private unnamed_addr constant [5 x i8] c"0RTT\00", align 1
@.str.54 = private unnamed_addr constant [5 x i8] c"1RTT\00", align 1
@.str.55 = private unnamed_addr constant [20 x i8] c"version_negotiation\00", align 1
@.str.56 = private unnamed_addr constant [6 x i8] c"retry\00", align 1
@.str.57 = private unnamed_addr constant [8 x i8] c"unknown\00", align 1

; Function Attrs: inlinehint nounwind uwtable
define internal i32 @ossl_quic_pkt_type_is_encrypted(i32 noundef %0) #3 {
  %2 = alloca i32, align 4
  %3 = alloca i32, align 4
  store i32 %0, ptr %3, align 4, !tbaa !10
  %4 = load i32, ptr %3, align 4, !tbaa !10
  switch i32 %4, label %6 [
    i32 4, label %5
    i32 6, label %5
  ]

5:                                                ; preds = %1, %1
  store i32 0, ptr %2, align 4
  br label %7

6:                                                ; preds = %1
  store i32 1, ptr %2, align 4
  br label %7

7:                                                ; preds = %6, %5
  %8 = load i32, ptr %2, align 4
  ret i32 %8
}

; Function Attrs: inlinehint nounwind uwtable
define internal i32 @ossl_quic_pkt_type_has_pn(i32 noundef %0) #3 {
  %2 = alloca i32, align 4
  store i32 %0, ptr %2, align 4, !tbaa !10
  %3 = load i32, ptr %2, align 4, !tbaa !10
  %4 = call i32 @ossl_quic_pkt_type_is_encrypted(i32 noundef %3)
  ret i32 %4
}

; Function Attrs: nounwind uwtable
define internal ptr @quic_pkt_type_to_qlog(i32 noundef %0) #0 {
  %2 = alloca ptr, align 8
  %3 = alloca i32, align 4
  store i32 %0, ptr %3, align 4, !tbaa !10
  %4 = load i32, ptr %3, align 4, !tbaa !10
  switch i32 %4, label %11 [
    i32 1, label %5
    i32 3, label %6
    i32 2, label %7
    i32 5, label %8
    i32 6, label %9
    i32 4, label %10
  ]

5:                                                ; preds = %1
  store ptr @.str.51, ptr %2, align 8
  br label %12

6:                                                ; preds = %1
  store ptr @.str.52, ptr %2, align 8
  br label %12

7:                                                ; preds = %1
  store ptr @.str.53, ptr %2, align 8
  br label %12

8:                                                ; preds = %1
  store ptr @.str.54, ptr %2, align 8
  br label %12

9:                                                ; preds = %1
  store ptr @.str.55, ptr %2, align 8
  br label %12

10:                                               ; preds = %1
  store ptr @.str.56, ptr %2, align 8
  br label %12

11:                                               ; preds = %1
  store ptr @.str.57, ptr %2, align 8
  br label %12

12:                                               ; preds = %11, %10, %9, %8, %7, %6, %5
  %13 = load ptr, ptr %2, align 8
  ret ptr %13
}

; Function Attrs: nounwind uwtable
define void @ossl_qlog_event_recovery_packet_lost(ptr noundef %0, ptr noundef %1) #0 {
  %3 = alloca ptr, align 8
  %4 = alloca ptr, align 8
  %5 = alloca ptr, align 8
  %6 = alloca i32, align 4
  store ptr %0, ptr %3, align 8, !tbaa !3
  store ptr %1, ptr %4, align 8, !tbaa !24
  call void @llvm.lifetime.start.p0(i64 8, ptr %5) #5
  %7 = load ptr, ptr %3, align 8, !tbaa !3
  store ptr %7, ptr %5, align 8, !tbaa !3
  call void @llvm.lifetime.start.p0(i64 4, ptr %6) #5
  store i32 7, ptr %6, align 4, !tbaa !10
  %8 = load ptr, ptr %5, align 8, !tbaa !3
  %9 = load i32, ptr %6, align 4, !tbaa !10
  %10 = call i32 @ossl_qlog_event_try_begin(ptr noundef %8, i32 noundef %9, ptr noundef @.str.18, ptr noundef @.str.19, ptr noundef @.str.20)
  %11 = icmp ne i32 %10, 0
  br i1 %11, label %12, label %35

12:                                               ; preds = %2
  %13 = load ptr, ptr %5, align 8, !tbaa !3
  call void @ossl_qlog_group_begin(ptr noundef %13, ptr noundef @.str.21)
  %14 = load ptr, ptr %5, align 8, !tbaa !3
  %15 = load ptr, ptr %4, align 8, !tbaa !24
  %16 = getelementptr inbounds nuw %struct.quic_txpim_pkt_st, ptr %15, i32 0, i32 3
  %17 = load i8, ptr %16, align 8, !tbaa !26
  %18 = zext i8 %17 to i32
  %19 = call ptr @quic_pkt_type_to_qlog(i32 noundef %18)
  call void @ossl_qlog_str(ptr noundef %14, ptr noundef @.str.22, ptr noundef %19)
  %20 = load ptr, ptr %4, align 8, !tbaa !24
  %21 = getelementptr inbounds nuw %struct.quic_txpim_pkt_st, ptr %20, i32 0, i32 3
  %22 = load i8, ptr %21, align 8, !tbaa !26
  %23 = zext i8 %22 to i32
  %24 = call i32 @ossl_quic_pkt_type_has_pn(i32 noundef %23)
  %25 = icmp ne i32 %24, 0
  br i1 %25, label %26, label %32

26:                                               ; preds = %12
  %27 = load ptr, ptr %5, align 8, !tbaa !3
  %28 = load ptr, ptr %4, align 8, !tbaa !24
  %29 = getelementptr inbounds nuw %struct.quic_txpim_pkt_st, ptr %28, i32 0, i32 0
  %30 = getelementptr inbounds nuw %struct.ossl_ackm_tx_pkt_st, ptr %29, i32 0, i32 0
  %31 = load i64, ptr %30, align 8, !tbaa !34
  call void @ossl_qlog_u64(ptr noundef %27, ptr noundef @.str.23, i64 noundef %31)
  br label %32

32:                                               ; preds = %26, %12
  %33 = load ptr, ptr %5, align 8, !tbaa !3
  call void @ossl_qlog_group_end(ptr noundef %33)
  %34 = load ptr, ptr %5, align 8, !tbaa !3
  call void @ossl_qlog_event_end(ptr noundef %34)
  br label %35

35:                                               ; preds = %32, %2
  call void @llvm.lifetime.end.p0(i64 4, ptr %6) #5
  call void @llvm.lifetime.end.p0(i64 8, ptr %5) #5
  ret void
}