; Function Attrs: nounwind uwtable
define void @ossl_qlog_event_recovery_packet_lost(ptr noundef %0, ptr noundef readonly captures(none) %1) local_unnamed_addr #0 {
  %3 = tail call i32 @ossl_qlog_event_try_begin(ptr noundef %0, i32 noundef 7, ptr noundef nonnull @.str.18, ptr noundef nonnull @.str.19, ptr noundef nonnull @.str.20) #3
  %.not = icmp eq i32 %3, 0
  br i1 %.not, label %14, label %4

4:                                                ; preds = %2
  tail call void @ossl_qlog_group_begin(ptr noundef %0, ptr noundef nonnull @.str.21) #3
  %5 = getelementptr inbounds nuw i8, ptr %1, i64 120
  %6 = load i8, ptr %5, align 8, !tbaa !15
  %switch.tableidx = add i8 %6, -1
  %7 = icmp ult i8 %switch.tableidx, 6
  br i1 %7, label %switch.lookup, label %quic_pkt_type_to_qlog.exit

switch.lookup:                                    ; preds = %4
  %8 = zext nneg i8 %switch.tableidx to i64
  %switch.gep = getelementptr inbounds nuw [6 x ptr], ptr @switch.table.log_packet, i64 0, i64 %8
  %switch.load = load ptr, ptr %switch.gep, align 8
  br label %quic_pkt_type_to_qlog.exit

quic_pkt_type_to_qlog.exit:                       ; preds = %4, %switch.lookup
  %.0.i = phi ptr [ %switch.load, %switch.lookup ], [ @.str.57, %4 ]
  tail call void @ossl_qlog_str(ptr noundef %0, ptr noundef nonnull @.str.22, ptr noundef nonnull %.0.i) #3
  %9 = load i8, ptr %5, align 8, !tbaa !15
  %10 = and i8 %9, -3
  %switch.selectcmp.i.i.not = icmp eq i8 %10, 4
  br i1 %switch.selectcmp.i.i.not, label %13, label %11

11:                                               ; preds = %quic_pkt_type_to_qlog.exit
  %12 = load i64, ptr %1, align 8, !tbaa !23
  tail call void @ossl_qlog_u64(ptr noundef %0, ptr noundef nonnull @.str.23, i64 noundef %12) #3
  br label %13

13:                                               ; preds = %11, %quic_pkt_type_to_qlog.exit
  tail call void @ossl_qlog_group_end(ptr noundef %0) #3
  tail call void @ossl_qlog_event_end(ptr noundef %0) #3
  br label %14

14:                                               ; preds = %13, %2
  ret void
}